; Function Attrs: mustprogress nofree norecurse nosync nounwind memory(read, argmem: readwrite, inaccessiblemem: none) uwtable
define void @_ZN10OpenSubdiv6v3_6_03Bfr12Tessellation26TransformFacetCoordIndicesEPiPKiS5_(ptr nocapture noundef nonnull readonly align 8 dereferenceable(64) %0, ptr nocapture noundef %1, ptr nocapture noundef readonly %2, ptr nocapture noundef readonly %3) local_unnamed_addr #10 align 2 {
  %5 = getelementptr inbounds nuw i8, ptr %0, i64 28
  %6 = load i32, ptr %5, align 4
  %7 = icmp sgt i32 %6, 0
  br i1 %7, label %.preheader.lr.ph, label %._crit_edge21

.preheader.lr.ph:                                 ; preds = %4
  %8 = getelementptr inbounds nuw i8, ptr %0, i64 6
  %9 = getelementptr inbounds nuw i8, ptr %0, i64 20
  %10 = getelementptr inbounds nuw i8, ptr %0, i64 8
  %.pre = load i16, ptr %8, align 2
  br label %.preheader

.preheader:                                       ; preds = %.preheader.lr.ph, %._crit_edge
  %11 = phi i32 [ %6, %.preheader.lr.ph ], [ %32, %._crit_edge ]
  %12 = phi i16 [ %.pre, %.preheader.lr.ph ], [ %33, %._crit_edge ]
  %13 = phi i16 [ %.pre, %.preheader.lr.ph ], [ %34, %._crit_edge ]
  %.020 = phi ptr [ %1, %.preheader.lr.ph ], [ %38, %._crit_edge ]
  %.01519 = phi i32 [ 0, %.preheader.lr.ph ], [ %35, %._crit_edge ]
  %14 = icmp sgt i16 %13, 0
  br i1 %14, label %.lr.ph, label %._crit_edge

.lr.ph:                                           ; preds = %.preheader, %28
  %15 = phi i16 [ %29, %28 ], [ %12, %.preheader ]
  %indvars.iv = phi i64 [ %indvars.iv.next, %28 ], [ 0, %.preheader ]
  %16 = getelementptr inbounds i32, ptr %.020, i64 %indvars.iv
  %17 = load i32, ptr %16, align 4
  %18 = icmp sgt i32 %17, -1
  br i1 %18, label %19, label %28

19:                                               ; preds = %.lr.ph
  %20 = load i32, ptr %9, align 4
  %21 = icmp slt i32 %17, %20
  %22 = zext nneg i32 %17 to i64
  %23 = getelementptr inbounds i32, ptr %2, i64 %22
  %24 = sub nsw i32 %17, %20
  %25 = sext i32 %24 to i64
  %26 = getelementptr inbounds i32, ptr %3, i64 %25
  %.in = select i1 %21, ptr %23, ptr %26
  %27 = load i32, ptr %.in, align 4
  store i32 %27, ptr %16, align 4
  %.pre23 = load i16, ptr %8, align 2
  br label %28

28:                                               ; preds = %.lr.ph, %19
  %29 = phi i16 [ %15, %.lr.ph ], [ %.pre23, %19 ]
  %indvars.iv.next = add nuw nsw i64 %indvars.iv, 1
  %30 = sext i16 %29 to i64
  %31 = icmp slt i64 %indvars.iv.next, %30
  br i1 %31, label %.lr.ph, label %._crit_edge.loopexit, !llvm.loop !172

._crit_edge.loopexit:                             ; preds = %28
  %.pre24 = load i32, ptr %5, align 4
  br label %._crit_edge

._crit_edge:                                      ; preds = %._crit_edge.loopexit, %.preheader
  %32 = phi i32 [ %.pre24, %._crit_edge.loopexit ], [ %11, %.preheader ]
  %33 = phi i16 [ %29, %._crit_edge.loopexit ], [ %12, %.preheader ]
  %34 = phi i16 [ %29, %._crit_edge.loopexit ], [ %13, %.preheader ]
  %35 = add nuw nsw i32 %.01519, 1
  %36 = load i32, ptr %10, align 8
  %37 = sext i32 %36 to i64
  %38 = getelementptr inbounds i32, ptr %.020, i64 %37
  %39 = icmp slt i32 %35, %32
  br i1 %39, label %.preheader, label %._crit_edge21, !llvm.loop !173

._crit_edge21:                                    ; preds = %._crit_edge, %4
  ret void
}